target datalayout = "e-m:e-p270:32:32-p271:32:32-p272:64:64-i64:64-i128:128-f80:128-n8:16:32:64-S128"
target triple = "x86_64-unknown-linux-gnu"

%"class.icu_75::UnicodeString" = type { %"class.icu_75::Replaceable", %"union.icu_75::UnicodeString::StackBufferOrFields" }
%"class.icu_75::Replaceable" = type { %"class.icu_75::UObject" }
%"class.icu_75::UObject" = type { ptr }
%"union.icu_75::UnicodeString::StackBufferOrFields" = type { %struct.anon.0, [32 x i8] }
%struct.anon.0 = type { i16, i32, i32, ptr }
%"class.icu_75::UXMLParser" = type { %"class.icu_75::UObject", %"class.icu_75::RegexMatcher", %"class.icu_75::RegexMatcher", %"class.icu_75::RegexMatcher", %"class.icu_75::RegexMatcher", %"class.icu_75::RegexMatcher", %"class.icu_75::RegexMatcher", %"class.icu_75::RegexMatcher", %"class.icu_75::RegexMatcher", %"class.icu_75::RegexMatcher", %"class.icu_75::RegexMatcher", %"class.icu_75::RegexMatcher", %"class.icu_75::RegexMatcher", %"class.icu_75::RegexMatcher", %"class.icu_75::Hashtable", %"class.icu_75::UStack", i32, %"class.icu_75::UnicodeString" }
%"class.icu_75::RegexMatcher" = type { %"class.icu_75::UObject", ptr, ptr, ptr, ptr, ptr, i64, i32, i64, i64, i64, i64, i64, i64, i64, i64, i8, i8, i8, i64, i64, i64, i64, i8, i8, ptr, ptr, ptr, [8 x i64], i32, i32, i32, i32, ptr, ptr, ptr, ptr, i8, i8, i32, ptr, ptr }
%"class.icu_75::Hashtable" = type { ptr, %struct.UHashtable }
%struct.UHashtable = type { ptr, ptr, ptr, ptr, ptr, ptr, i32, i32, i32, i32, float, float, i8, i8 }
%"class.icu_75::UStack" = type { %"class.icu_75::UVector" }
%"class.icu_75::UVector" = type { %"class.icu_75::UObject", i32, i32, ptr, ptr, ptr }
%struct.UHashElement = type { i32, %union.UElement, %union.UElement }
%union.UElement = type { ptr }

; Function Attrs: mustprogress uwtable
define linkonce_odr noundef ptr @_ZNK6icu_759Hashtable4findERKNS_13UnicodeStringE(ptr noundef nonnull align 8 dereferenceable(88) %this, ptr noundef nonnull align 8 dereferenceable(64) %key) #1 comdat align 2 {
entry:
  %this.addr = alloca ptr, align 8
  %key.addr = alloca ptr, align 8
  store ptr %this, ptr %this.addr, align 8
  store ptr %key, ptr %key.addr, align 8
  %this1 = load ptr, ptr %this.addr, align 8
  %hash = getelementptr inbounds %"class.icu_75::Hashtable", ptr %this1, i32 0, i32 0
  %0 = load ptr, ptr %hash, align 8
  %1 = load ptr, ptr %key.addr, align 8
  %call = call ptr @uhash_find_75(ptr noundef %0, ptr noundef %1)
  ret ptr %call
}

; Function Attrs: mustprogress uwtable
define noundef ptr @_ZNK6icu_7510UXMLParser8findNameERKNS_13UnicodeStringE(ptr noundef nonnull align 8 dereferenceable(4576) %this, ptr noundef nonnull align 8 dereferenceable(64) %s) #1 align 2 {
entry:
  %retval = alloca ptr, align 8
  %this.addr = alloca ptr, align 8
  %s.addr = alloca ptr, align 8
  %he = alloca ptr, align 8
  store ptr %this, ptr %this.addr, align 8
  store ptr %s, ptr %s.addr, align 8
  %this1 = load ptr, ptr %this.addr, align 8
  %fNames = getelementptr inbounds %"class.icu_75::UXMLParser", ptr %this1, i32 0, i32 14
  %0 = load ptr, ptr %s.addr, align 8
  %call = call noundef ptr @_ZNK6icu_759Hashtable4findERKNS_13UnicodeStringE(ptr noundef nonnull align 8 dereferenceable(88) %fNames, ptr noundef nonnull align 8 dereferenceable(64) %0)
  store ptr %call, ptr %he, align 8
  %1 = load ptr, ptr %he, align 8
  %cmp = icmp ne ptr %1, null
  br i1 %cmp, label %if.then, label %if.else

if.then:                                          ; preds = %entry
  %2 = load ptr, ptr %he, align 8
  %key = getelementptr inbounds %struct.UHashElement, ptr %2, i32 0, i32 2
  %3 = load ptr, ptr %key, align 8
  store ptr %3, ptr %retval, align 8
  br label %return

if.else:                                          ; preds = %entry
  store ptr null, ptr %retval, align 8
  br label %return

return:                                           ; preds = %if.else, %if.then
  %4 = load ptr, ptr %retval, align 8
  ret ptr %4
}