; Function Attrs: mustprogress uwtable
define noundef ptr @_ZNK6icu_7510UXMLParser8findNameERKNS_13UnicodeStringE(ptr nocapture noundef nonnull readonly align 8 dereferenceable(4576) %this, ptr noundef nonnull align 8 dereferenceable(64) %s) local_unnamed_addr #1 align 2 {
entry:
  %fNames = getelementptr inbounds i8, ptr %this, i64 4376
  %0 = load ptr, ptr %fNames, align 8
  %call.i = tail call noundef ptr @uhash_find_75(ptr noundef %0, ptr noundef nonnull %s)
  %cmp.not = icmp eq ptr %call.i, null
  br i1 %cmp.not, label %return, label %if.then

if.then:                                          ; preds = %entry
  %key = getelementptr inbounds i8, ptr %call.i, i64 16
  %1 = load ptr, ptr %key, align 8
  br label %return

return:                                           ; preds = %entry, %if.then
  %retval.0 = phi ptr [ %1, %if.then ], [ null, %entry ]
  ret ptr %retval.0
}